target datalayout = "e-m:e-p270:32:32-p271:32:32-p272:64:64-i64:64-i128:128-f80:128-n8:16:32:64-S128"
target triple = "x86_64-pc-linux-gnu"

%"class.pxrInternal_v0_24__pxrReserved__::TfCallContext" = type <{ ptr, ptr, i64, ptr, i8, [7 x i8] }>
%"class.pxrInternal_v0_24__pxrReserved__::GfRange3d" = type { %"class.pxrInternal_v0_24__pxrReserved__::GfVec3d", %"class.pxrInternal_v0_24__pxrReserved__::GfVec3d" }
%"class.pxrInternal_v0_24__pxrReserved__::GfVec3d" = type { [3 x double] }

@.str.3 = private unnamed_addr constant [139 x i8] c"generated/home/dtcxzyw/WorkSpace/Projects/compilers/llvm-opt-benchmark/bench/openusd/OpenUSD/pxr/usdImaging/usdImaging/drawModeAdapter.cpp\00", align 1
@__func__._ZNK32pxrInternal_v0_24__pxrReserved__25UsdImagingDrawModeAdapter21_SanityCheckFaceSizesERKNS_7SdfPathERKNS_9GfRange3dEh = private unnamed_addr constant [22 x i8] c"_SanityCheckFaceSizes\00", align 1
@.str.22 = private unnamed_addr constant [54 x i8] c"Cards rendering for <%s>: X+/X- faces have zero area.\00", align 1
@.str.23 = private unnamed_addr constant [54 x i8] c"Cards rendering for <%s>: Y+/Y- faces have zero area.\00", align 1
@.str.24 = private unnamed_addr constant [54 x i8] c"Cards rendering for <%s>: Z+/Z- faces have zero area.\00", align 1

; Function Attrs: mustprogress nounwind uwtable
define linkonce_odr void @_ZN32pxrInternal_v0_24__pxrReserved__13TfCallContextC2EPKcS2_mS2_(ptr noundef nonnull align 8 dereferenceable(33) %0, ptr noundef %1, ptr noundef %2, i64 noundef %3, ptr noundef %4) unnamed_addr #2 comdat align 2 {
  %6 = alloca ptr, align 8
  %7 = alloca ptr, align 8
  %8 = alloca ptr, align 8
  %9 = alloca i64, align 8
  %10 = alloca ptr, align 8
  store ptr %0, ptr %6, align 8
  store ptr %1, ptr %7, align 8
  store ptr %2, ptr %8, align 8
  store i64 %3, ptr %9, align 8
  store ptr %4, ptr %10, align 8
  %11 = load ptr, ptr %6, align 8
  %12 = getelementptr inbounds nuw %"class.pxrInternal_v0_24__pxrReserved__::TfCallContext", ptr %11, i32 0, i32 0
  %13 = load ptr, ptr %7, align 8
  store ptr %13, ptr %12, align 8
  %14 = getelementptr inbounds nuw %"class.pxrInternal_v0_24__pxrReserved__::TfCallContext", ptr %11, i32 0, i32 1
  %15 = load ptr, ptr %8, align 8
  store ptr %15, ptr %14, align 8
  %16 = getelementptr inbounds nuw %"class.pxrInternal_v0_24__pxrReserved__::TfCallContext", ptr %11, i32 0, i32 2
  %17 = load i64, ptr %9, align 8
  store i64 %17, ptr %16, align 8
  %18 = getelementptr inbounds nuw %"class.pxrInternal_v0_24__pxrReserved__::TfCallContext", ptr %11, i32 0, i32 3
  %19 = load ptr, ptr %10, align 8
  store ptr %19, ptr %18, align 8
  %20 = getelementptr inbounds nuw %"class.pxrInternal_v0_24__pxrReserved__::TfCallContext", ptr %11, i32 0, i32 4
  store i8 0, ptr %20, align 8
  ret void
}

; Function Attrs: mustprogress nounwind uwtable
define linkonce_odr noundef nonnull align 8 dereferenceable(8) ptr @_ZN32pxrInternal_v0_24__pxrReserved__7GfVec3dixEm(ptr noundef nonnull align 8 dereferenceable(24) %0, i64 noundef %1) #2 comdat align 2 {
  %3 = alloca ptr, align 8
  %4 = alloca i64, align 8
  store ptr %0, ptr %3, align 8
  store i64 %1, ptr %4, align 8
  %5 = load ptr, ptr %3, align 8
  %6 = getelementptr inbounds nuw %"class.pxrInternal_v0_24__pxrReserved__::GfVec3d", ptr %5, i32 0, i32 0
  %7 = load i64, ptr %4, align 8
  %8 = getelementptr inbounds [3 x double], ptr %6, i64 0, i64 %7
  ret ptr %8
}

; Function Attrs: mustprogress nounwind uwtable
define linkonce_odr noundef nonnull align 8 dereferenceable(24) ptr @_ZNK32pxrInternal_v0_24__pxrReserved__9GfRange3d6GetMaxEv(ptr noundef nonnull align 8 dereferenceable(48) %0) #2 comdat align 2 {
  %2 = alloca ptr, align 8
  store ptr %0, ptr %2, align 8
  %3 = load ptr, ptr %2, align 8
  %4 = getelementptr inbounds nuw %"class.pxrInternal_v0_24__pxrReserved__::GfRange3d", ptr %3, i32 0, i32 1
  ret ptr %4
}

; Function Attrs: mustprogress nounwind uwtable
define linkonce_odr noundef nonnull align 8 dereferenceable(24) ptr @_ZNK32pxrInternal_v0_24__pxrReserved__9GfRange3d6GetMinEv(ptr noundef nonnull align 8 dereferenceable(48) %0) #2 comdat align 2 {
  %2 = alloca ptr, align 8
  store ptr %0, ptr %2, align 8
  %3 = load ptr, ptr %2, align 8
  %4 = getelementptr inbounds nuw %"class.pxrInternal_v0_24__pxrReserved__::GfRange3d", ptr %3, i32 0, i32 0
  ret ptr %4
}

; Function Attrs: mustprogress uwtable
define void @_ZNK32pxrInternal_v0_24__pxrReserved__25UsdImagingDrawModeAdapter21_SanityCheckFaceSizesERKNS_7SdfPathERKNS_9GfRange3dEh(ptr noundef nonnull align 8 dereferenceable(156) %0, ptr noundef nonnull align 4 dereferenceable(8) %1, ptr noundef nonnull align 8 dereferenceable(48) %2, i8 noundef zeroext %3) #0 align 2 {
  %5 = alloca ptr, align 8
  %6 = alloca ptr, align 8
  %7 = alloca ptr, align 8
  %8 = alloca i8, align 1
  %9 = alloca %"class.pxrInternal_v0_24__pxrReserved__::GfVec3d", align 8
  %10 = alloca %"class.pxrInternal_v0_24__pxrReserved__::GfVec3d", align 8
  %11 = alloca i8, align 1
  %12 = alloca i8, align 1
  %13 = alloca i8, align 1
  %14 = alloca %"class.pxrInternal_v0_24__pxrReserved__::TfCallContext", align 8
  %15 = alloca %"class.pxrInternal_v0_24__pxrReserved__::TfCallContext", align 8
  %16 = alloca %"class.pxrInternal_v0_24__pxrReserved__::TfCallContext", align 8
  store ptr %0, ptr %5, align 8
  store ptr %1, ptr %6, align 8
  store ptr %2, ptr %7, align 8
  store i8 %3, ptr %8, align 1
  %17 = load ptr, ptr %7, align 8
  %18 = call noundef nonnull align 8 dereferenceable(24) ptr @_ZNK32pxrInternal_v0_24__pxrReserved__9GfRange3d6GetMinEv(ptr noundef nonnull align 8 dereferenceable(48) %17)
  call void @llvm.memcpy.p0.p0.i64(ptr align 8 %9, ptr align 8 %18, i64 24, i1 false)
  %19 = load ptr, ptr %7, align 8
  %20 = call noundef nonnull align 8 dereferenceable(24) ptr @_ZNK32pxrInternal_v0_24__pxrReserved__9GfRange3d6GetMaxEv(ptr noundef nonnull align 8 dereferenceable(48) %19)
  call void @llvm.memcpy.p0.p0.i64(ptr align 8 %10, ptr align 8 %20, i64 24, i1 false)
  %21 = call noundef nonnull align 8 dereferenceable(8) ptr @_ZN32pxrInternal_v0_24__pxrReserved__7GfVec3dixEm(ptr noundef nonnull align 8 dereferenceable(24) %9, i64 noundef 0)
  %22 = load double, ptr %21, align 8
  %23 = call noundef nonnull align 8 dereferenceable(8) ptr @_ZN32pxrInternal_v0_24__pxrReserved__7GfVec3dixEm(ptr noundef nonnull align 8 dereferenceable(24) %10, i64 noundef 0)
  %24 = load double, ptr %23, align 8
  %25 = fcmp oeq double %22, %24
  %26 = zext i1 %25 to i8
  store i8 %26, ptr %11, align 1
  %27 = call noundef nonnull align 8 dereferenceable(8) ptr @_ZN32pxrInternal_v0_24__pxrReserved__7GfVec3dixEm(ptr noundef nonnull align 8 dereferenceable(24) %9, i64 noundef 1)
  %28 = load double, ptr %27, align 8
  %29 = call noundef nonnull align 8 dereferenceable(8) ptr @_ZN32pxrInternal_v0_24__pxrReserved__7GfVec3dixEm(ptr noundef nonnull align 8 dereferenceable(24) %10, i64 noundef 1)
  %30 = load double, ptr %29, align 8
  %31 = fcmp oeq double %28, %30
  %32 = zext i1 %31 to i8
  store i8 %32, ptr %12, align 1
  %33 = call noundef nonnull align 8 dereferenceable(8) ptr @_ZN32pxrInternal_v0_24__pxrReserved__7GfVec3dixEm(ptr noundef nonnull align 8 dereferenceable(24) %9, i64 noundef 2)
  %34 = load double, ptr %33, align 8
  %35 = call noundef nonnull align 8 dereferenceable(8) ptr @_ZN32pxrInternal_v0_24__pxrReserved__7GfVec3dixEm(ptr noundef nonnull align 8 dereferenceable(24) %10, i64 noundef 2)
  %36 = load double, ptr %35, align 8
  %37 = fcmp oeq double %34, %36
  %38 = zext i1 %37 to i8
  store i8 %38, ptr %13, align 1
  %39 = load i8, ptr %8, align 1
  %40 = zext i8 %39 to i32
  %41 = and i32 %40, 9
  %42 = icmp ne i32 %41, 0
  br i1 %42, label %43, label %52

43:                                               ; preds = %4
  %44 = load i8, ptr %12, align 1
  %45 = trunc i8 %44 to i1
  br i1 %45, label %49, label %46

46:                                               ; preds = %43
  %47 = load i8, ptr %13, align 1
  %48 = trunc i8 %47 to i1
  br i1 %48, label %49, label %52

49:                                               ; preds = %46, %43
  call void @_ZN32pxrInternal_v0_24__pxrReserved__13TfCallContextC2EPKcS2_mS2_(ptr noundef nonnull align 8 dereferenceable(33) %14, ptr noundef @.str.3, ptr noundef @__func__._ZNK32pxrInternal_v0_24__pxrReserved__25UsdImagingDrawModeAdapter21_SanityCheckFaceSizesERKNS_7SdfPathERKNS_9GfRange3dEh, i64 noundef 1216, ptr noundef @__PRETTY_FUNCTION__._ZNK32pxrInternal_v0_24__pxrReserved__25UsdImagingDrawModeAdapter21_SanityCheckFaceSizesERKNS_7SdfPathERKNS_9GfRange3dEh)
  %50 = load ptr, ptr %6, align 8
  %51 = call noundef ptr @_ZNK32pxrInternal_v0_24__pxrReserved__7SdfPath7GetTextEv(ptr noundef nonnull align 4 dereferenceable(8) %50)
  call void (ptr, ptr, ...) @_ZN32pxrInternal_v0_24__pxrReserved__20Tf_PostWarningHelperERKNS_13TfCallContextEPKcz(ptr noundef nonnull align 8 dereferenceable(33) %14, ptr noundef @.str.22, ptr noundef %51)
  br label %52

52:                                               ; preds = %49, %46, %4
  %53 = load i8, ptr %8, align 1
  %54 = zext i8 %53 to i32
  %55 = and i32 %54, 18
  %56 = icmp ne i32 %55, 0
  br i1 %56, label %57, label %66

57:                                               ; preds = %52
  %58 = load i8, ptr %11, align 1
  %59 = trunc i8 %58 to i1
  br i1 %59, label %63, label %60

60:                                               ; preds = %57
  %61 = load i8, ptr %13, align 1
  %62 = trunc i8 %61 to i1
  br i1 %62, label %63, label %66

63:                                               ; preds = %60, %57
  call void @_ZN32pxrInternal_v0_24__pxrReserved__13TfCallContextC2EPKcS2_mS2_(ptr noundef nonnull align 8 dereferenceable(33) %15, ptr noundef @.str.3, ptr noundef @__func__._ZNK32pxrInternal_v0_24__pxrReserved__25UsdImagingDrawModeAdapter21_SanityCheckFaceSizesERKNS_7SdfPathERKNS_9GfRange3dEh, i64 noundef 1221, ptr noundef @__PRETTY_FUNCTION__._ZNK32pxrInternal_v0_24__pxrReserved__25UsdImagingDrawModeAdapter21_SanityCheckFaceSizesERKNS_7SdfPathERKNS_9GfRange3dEh)
  %64 = load ptr, ptr %6, align 8
  %65 = call noundef ptr @_ZNK32pxrInternal_v0_24__pxrReserved__7SdfPath7GetTextEv(ptr noundef nonnull align 4 dereferenceable(8) %64)
  call void (ptr, ptr, ...) @_ZN32pxrInternal_v0_24__pxrReserved__20Tf_PostWarningHelperERKNS_13TfCallContextEPKcz(ptr noundef nonnull align 8 dereferenceable(33) %15, ptr noundef @.str.23, ptr noundef %65)
  br label %66

66:                                               ; preds = %63, %60, %52
  %67 = load i8, ptr %8, align 1
  %68 = zext i8 %67 to i32
  %69 = and i32 %68, 36
  %70 = icmp ne i32 %69, 0
  br i1 %70, label %71, label %80

71:                                               ; preds = %66
  %72 = load i8, ptr %11, align 1
  %73 = trunc i8 %72 to i1
  br i1 %73, label %77, label %74

74:                                               ; preds = %71
  %75 = load i8, ptr %12, align 1
  %76 = trunc i8 %75 to i1
  br i1 %76, label %77, label %80

77:                                               ; preds = %74, %71
  call void @_ZN32pxrInternal_v0_24__pxrReserved__13TfCallContextC2EPKcS2_mS2_(ptr noundef nonnull align 8 dereferenceable(33) %16, ptr noundef @.str.3, ptr noundef @__func__._ZNK32pxrInternal_v0_24__pxrReserved__25UsdImagingDrawModeAdapter21_SanityCheckFaceSizesERKNS_7SdfPathERKNS_9GfRange3dEh, i64 noundef 1226, ptr noundef @__PRETTY_FUNCTION__._ZNK32pxrInternal_v0_24__pxrReserved__25UsdImagingDrawModeAdapter21_SanityCheckFaceSizesERKNS_7SdfPathERKNS_9GfRange3dEh)
  %78 = load ptr, ptr %6, align 8
  %79 = call noundef ptr @_ZNK32pxrInternal_v0_24__pxrReserved__7SdfPath7GetTextEv(ptr noundef nonnull align 4 dereferenceable(8) %78)
  call void (ptr, ptr, ...) @_ZN32pxrInternal_v0_24__pxrReserved__20Tf_PostWarningHelperERKNS_13TfCallContextEPKcz(ptr noundef nonnull align 8 dereferenceable(33) %16, ptr noundef @.str.24, ptr noundef %79)
  br label %80

80:                                               ; preds = %77, %74, %66
  ret void
}