; Function Attrs: mustprogress uwtable
define void @_ZNK32pxrInternal_v0_24__pxrReserved__25UsdImagingDrawModeAdapter21_SanityCheckFaceSizesERKNS_7SdfPathERKNS_9GfRange3dEh(ptr nonnull readnone align 8 captures(none) %0, ptr noundef nonnull align 4 dereferenceable(8) %1, ptr noundef nonnull readonly align 8 captures(none) dereferenceable(48) %2, i8 noundef zeroext %3) local_unnamed_addr #0 align 2 {
  %5 = alloca %"class.pxrInternal_v0_24__pxrReserved__::TfCallContext", align 8
  %6 = alloca %"class.pxrInternal_v0_24__pxrReserved__::TfCallContext", align 8
  %7 = alloca %"class.pxrInternal_v0_24__pxrReserved__::TfCallContext", align 8
  %.sroa.019.0.copyload = load double, ptr %2, align 8
  %.sroa.220.0..sroa_idx = getelementptr inbounds nuw i8, ptr %2, i64 8
  %.sroa.220.0.copyload = load double, ptr %.sroa.220.0..sroa_idx, align 8
  %.sroa.321.0..sroa_idx = getelementptr inbounds nuw i8, ptr %2, i64 16
  %.sroa.321.0.copyload = load double, ptr %.sroa.321.0..sroa_idx, align 8
  %8 = getelementptr inbounds nuw i8, ptr %2, i64 24
  %.sroa.0.0.copyload = load double, ptr %8, align 8
  %.sroa.2.0..sroa_idx = getelementptr inbounds nuw i8, ptr %2, i64 32
  %.sroa.2.0.copyload = load double, ptr %.sroa.2.0..sroa_idx, align 8
  %.sroa.3.0..sroa_idx = getelementptr inbounds nuw i8, ptr %2, i64 40
  %.sroa.3.0.copyload = load double, ptr %.sroa.3.0..sroa_idx, align 8
  %9 = fcmp oeq double %.sroa.019.0.copyload, %.sroa.0.0.copyload
  %10 = fcmp oeq double %.sroa.220.0.copyload, %.sroa.2.0.copyload
  %11 = fcmp oeq double %.sroa.321.0.copyload, %.sroa.3.0.copyload
  %12 = zext i8 %3 to i32
  %13 = and i32 %12, 9
  %.not = icmp ne i32 %13, 0
  %brmerge = select i1 %10, i1 true, i1 %11
  %or.cond = select i1 %.not, i1 %brmerge, i1 false
  br i1 %or.cond, label %14, label %20

14:                                               ; preds = %4
  store ptr @.str.3, ptr %5, align 8
  %15 = getelementptr inbounds nuw i8, ptr %5, i64 8
  store ptr @__func__._ZNK32pxrInternal_v0_24__pxrReserved__25UsdImagingDrawModeAdapter21_SanityCheckFaceSizesERKNS_7SdfPathERKNS_9GfRange3dEh, ptr %15, align 8
  %16 = getelementptr inbounds nuw i8, ptr %5, i64 16
  store i64 1216, ptr %16, align 8
  %17 = getelementptr inbounds nuw i8, ptr %5, i64 24
  store ptr @__PRETTY_FUNCTION__._ZNK32pxrInternal_v0_24__pxrReserved__25UsdImagingDrawModeAdapter21_SanityCheckFaceSizesERKNS_7SdfPathERKNS_9GfRange3dEh, ptr %17, align 8
  %18 = getelementptr inbounds nuw i8, ptr %5, i64 32
  store i8 0, ptr %18, align 8
  %19 = tail call noundef ptr @_ZNK32pxrInternal_v0_24__pxrReserved__7SdfPath7GetTextEv(ptr noundef nonnull align 4 dereferenceable(8) %1)
  call void (ptr, ptr, ...) @_ZN32pxrInternal_v0_24__pxrReserved__20Tf_PostWarningHelperERKNS_13TfCallContextEPKcz(ptr noundef nonnull align 8 dereferenceable(33) %5, ptr noundef nonnull @.str.22, ptr noundef %19)
  br label %20

20:                                               ; preds = %14, %4
  %21 = and i32 %12, 18
  %.not13 = icmp ne i32 %21, 0
  %brmerge15 = select i1 %9, i1 true, i1 %11
  %or.cond17 = select i1 %.not13, i1 %brmerge15, i1 false
  br i1 %or.cond17, label %22, label %28

22:                                               ; preds = %20
  store ptr @.str.3, ptr %6, align 8
  %23 = getelementptr inbounds nuw i8, ptr %6, i64 8
  store ptr @__func__._ZNK32pxrInternal_v0_24__pxrReserved__25UsdImagingDrawModeAdapter21_SanityCheckFaceSizesERKNS_7SdfPathERKNS_9GfRange3dEh, ptr %23, align 8
  %24 = getelementptr inbounds nuw i8, ptr %6, i64 16
  store i64 1221, ptr %24, align 8
  %25 = getelementptr inbounds nuw i8, ptr %6, i64 24
  store ptr @__PRETTY_FUNCTION__._ZNK32pxrInternal_v0_24__pxrReserved__25UsdImagingDrawModeAdapter21_SanityCheckFaceSizesERKNS_7SdfPathERKNS_9GfRange3dEh, ptr %25, align 8
  %26 = getelementptr inbounds nuw i8, ptr %6, i64 32
  store i8 0, ptr %26, align 8
  %27 = call noundef ptr @_ZNK32pxrInternal_v0_24__pxrReserved__7SdfPath7GetTextEv(ptr noundef nonnull align 4 dereferenceable(8) %1)
  call void (ptr, ptr, ...) @_ZN32pxrInternal_v0_24__pxrReserved__20Tf_PostWarningHelperERKNS_13TfCallContextEPKcz(ptr noundef nonnull align 8 dereferenceable(33) %6, ptr noundef nonnull @.str.23, ptr noundef %27)
  br label %28

28:                                               ; preds = %22, %20
  %29 = and i32 %12, 36
  %.not14 = icmp ne i32 %29, 0
  %brmerge16 = select i1 %9, i1 true, i1 %10
  %or.cond18 = select i1 %.not14, i1 %brmerge16, i1 false
  br i1 %or.cond18, label %30, label %36

30:                                               ; preds = %28
  store ptr @.str.3, ptr %7, align 8
  %31 = getelementptr inbounds nuw i8, ptr %7, i64 8
  store ptr @__func__._ZNK32pxrInternal_v0_24__pxrReserved__25UsdImagingDrawModeAdapter21_SanityCheckFaceSizesERKNS_7SdfPathERKNS_9GfRange3dEh, ptr %31, align 8
  %32 = getelementptr inbounds nuw i8, ptr %7, i64 16
  store i64 1226, ptr %32, align 8
  %33 = getelementptr inbounds nuw i8, ptr %7, i64 24
  store ptr @__PRETTY_FUNCTION__._ZNK32pxrInternal_v0_24__pxrReserved__25UsdImagingDrawModeAdapter21_SanityCheckFaceSizesERKNS_7SdfPathERKNS_9GfRange3dEh, ptr %33, align 8
  %34 = getelementptr inbounds nuw i8, ptr %7, i64 32
  store i8 0, ptr %34, align 8
  %35 = call noundef ptr @_ZNK32pxrInternal_v0_24__pxrReserved__7SdfPath7GetTextEv(ptr noundef nonnull align 4 dereferenceable(8) %1)
  call void (ptr, ptr, ...) @_ZN32pxrInternal_v0_24__pxrReserved__20Tf_PostWarningHelperERKNS_13TfCallContextEPKcz(ptr noundef nonnull align 8 dereferenceable(33) %7, ptr noundef nonnull @.str.24, ptr noundef %35)
  br label %36

36:                                               ; preds = %30, %28
  ret void
}